target datalayout = "e-m:e-p270:32:32-p271:32:32-p272:64:64-i64:64-i128:128-f80:128-n8:16:32:64-S128"
target triple = "x86_64-pc-linux-gnu"

@.str = private unnamed_addr constant [34 x i8] c"../openssl/test/fake_cipherprov.c\00", align 1
@.str.1 = private unnamed_addr constant [77 x i8] c"OSSL_PROVIDER_add_builtin(libctx, FAKE_PROV_NAME, fake_cipher_provider_init)\00", align 1
@.str.2 = private unnamed_addr constant [12 x i8] c"fake-cipher\00", align 1
@.str.3 = private unnamed_addr constant [54 x i8] c"p = OSSL_PROVIDER_try_load(libctx, FAKE_PROV_NAME, 1)\00", align 1

; Function Attrs: nounwind uwtable
define dso_local ptr @fake_cipher_start(ptr noundef %0) #0 {
  %2 = alloca ptr, align 8
  %3 = alloca ptr, align 8
  %4 = alloca ptr, align 8
  %5 = alloca i32, align 4
  store ptr %0, ptr %3, align 8, !tbaa !4
  call void @llvm.lifetime.start.p0(i64 8, ptr %4) #6
  %6 = load ptr, ptr %3, align 8, !tbaa !4
  %7 = call i32 @OSSL_PROVIDER_add_builtin(ptr noundef %6, ptr noundef @.str.2, ptr noundef @fake_cipher_provider_init)
  %8 = icmp ne i32 %7, 0
  %9 = zext i1 %8 to i32
  %10 = call i32 @test_true(ptr noundef @.str, i32 noundef 311, ptr noundef @.str.1, i32 noundef %9)
  %11 = icmp ne i32 %10, 0
  br i1 %11, label %12, label %17

12:                                               ; preds = %1
  %13 = load ptr, ptr %3, align 8, !tbaa !4
  %14 = call ptr @OSSL_PROVIDER_try_load(ptr noundef %13, ptr noundef @.str.2, i32 noundef 1)
  store ptr %14, ptr %4, align 8, !tbaa !9
  %15 = call i32 @test_ptr(ptr noundef @.str, i32 noundef 312, ptr noundef @.str.3, ptr noundef %14)
  %16 = icmp ne i32 %15, 0
  br i1 %16, label %18, label %17

17:                                               ; preds = %12, %1
  store ptr null, ptr %2, align 8
  store i32 1, ptr %5, align 4
  br label %20

18:                                               ; preds = %12
  %19 = load ptr, ptr %4, align 8, !tbaa !9
  store ptr %19, ptr %2, align 8
  store i32 1, ptr %5, align 4
  br label %20

20:                                               ; preds = %18, %17
  call void @llvm.lifetime.end.p0(i64 8, ptr %4) #6
  %21 = load ptr, ptr %2, align 8
  ret ptr %21
}