; Function Attrs: nounwind uwtable
define dso_local ptr @fake_cipher_start(ptr noundef %0) local_unnamed_addr #0 {
  %2 = tail call i32 @OSSL_PROVIDER_add_builtin(ptr noundef %0, ptr noundef nonnull @.str.2, ptr noundef nonnull @fake_cipher_provider_init) #11
  %3 = icmp ne i32 %2, 0
  %4 = zext i1 %3 to i32
  %5 = tail call i32 @test_true(ptr noundef nonnull @.str, i32 noundef 311, ptr noundef nonnull @.str.1, i32 noundef %4) #11
  %.not = icmp eq i32 %5, 0
  br i1 %.not, label %9, label %6

6:                                                ; preds = %1
  %7 = tail call ptr @OSSL_PROVIDER_try_load(ptr noundef %0, ptr noundef nonnull @.str.2, i32 noundef 1) #11
  %8 = tail call i32 @test_ptr(ptr noundef nonnull @.str, i32 noundef 312, ptr noundef nonnull @.str.3, ptr noundef %7) #11
  %.not4 = icmp eq i32 %8, 0
  %spec.select = select i1 %.not4, ptr null, ptr %7
  br label %9

9:                                                ; preds = %6, %1
  %.0 = phi ptr [ null, %1 ], [ %spec.select, %6 ]
  ret ptr %.0
}